target datalayout = "e-m:e-p270:32:32-p271:32:32-p272:64:64-i64:64-i128:128-f80:128-n8:16:32:64-S128"
target triple = "x86_64-pc-linux-gnu"

%struct._object = type { i64, ptr }
%"struct.nanobind::detail::nb_bound_method" = type { %struct._object, ptr, ptr, ptr }

@.str.12 = private unnamed_addr constant [11 x i8] c"__module__\00", align 1
@.str.15 = private unnamed_addr constant [8 x i8] c"__doc__\00", align 1

; Function Attrs: mustprogress uwtable
define hidden noundef ptr @_ZN8nanobind6detail24nb_bound_method_getattroEP7_objectS2_(ptr noundef %0, ptr noundef %1) #0 {
  %3 = alloca ptr, align 8
  %4 = alloca ptr, align 8
  %5 = alloca ptr, align 8
  %6 = alloca i8, align 1
  %7 = alloca ptr, align 8
  %8 = alloca ptr, align 8
  %9 = alloca i32, align 4
  %10 = alloca ptr, align 8
  store ptr %0, ptr %4, align 8
  store ptr %1, ptr %5, align 8
  call void @llvm.lifetime.start.p0(i64 1, ptr %6) #22
  store i8 0, ptr %6, align 1
  call void @llvm.lifetime.start.p0(i64 8, ptr %7) #22
  %11 = load ptr, ptr %5, align 8
  %12 = call ptr @PyUnicode_AsUTF8AndSize(ptr noundef %11, ptr noundef null)
  store ptr %12, ptr %7, align 8
  %13 = load ptr, ptr %7, align 8
  %14 = icmp ne ptr %13, null
  br i1 %14, label %15, label %26

15:                                               ; preds = %2
  %16 = load ptr, ptr %7, align 8
  %17 = call i32 @strcmp(ptr noundef %16, ptr noundef @.str.15) #26
  %18 = icmp eq i32 %17, 0
  br i1 %18, label %23, label %19

19:                                               ; preds = %15
  %20 = load ptr, ptr %7, align 8
  %21 = call i32 @strcmp(ptr noundef %20, ptr noundef @.str.12) #26
  %22 = icmp eq i32 %21, 0
  br label %23

23:                                               ; preds = %19, %15
  %24 = phi i1 [ true, %15 ], [ %22, %19 ]
  %25 = zext i1 %24 to i8
  store i8 %25, ptr %6, align 1
  br label %26

26:                                               ; preds = %23, %2
  call void @llvm.lifetime.end.p0(i64 8, ptr %7) #22
  %27 = load i8, ptr %6, align 1, !range !10, !noundef !11
  %28 = trunc i8 %27 to i1
  br i1 %28, label %41, label %29

29:                                               ; preds = %26
  call void @llvm.lifetime.start.p0(i64 8, ptr %8) #22
  %30 = load ptr, ptr %4, align 8
  %31 = load ptr, ptr %5, align 8
  %32 = call ptr @PyObject_GenericGetAttr(ptr noundef %30, ptr noundef %31)
  store ptr %32, ptr %8, align 8
  %33 = load ptr, ptr %8, align 8
  %34 = icmp ne ptr %33, null
  br i1 %34, label %35, label %37

35:                                               ; preds = %29
  %36 = load ptr, ptr %8, align 8
  store ptr %36, ptr %3, align 8
  store i32 1, ptr %9, align 4
  br label %38

37:                                               ; preds = %29
  store i32 0, ptr %9, align 4
  br label %38

38:                                               ; preds = %37, %35
  call void @llvm.lifetime.end.p0(i64 8, ptr %8) #22
  %39 = load i32, ptr %9, align 4
  switch i32 %39, label %48 [
    i32 0, label %40
  ]

40:                                               ; preds = %38
  call void @PyErr_Clear()
  br label %41

41:                                               ; preds = %40, %26
  call void @llvm.lifetime.start.p0(i64 8, ptr %10) #22
  %42 = load ptr, ptr %4, align 8
  %43 = getelementptr inbounds nuw %"struct.nanobind::detail::nb_bound_method", ptr %42, i32 0, i32 2
  %44 = load ptr, ptr %43, align 8
  store ptr %44, ptr %10, align 8
  %45 = load ptr, ptr %10, align 8
  %46 = load ptr, ptr %5, align 8
  %47 = call noundef ptr @_ZN8nanobind6detail16nb_func_getattroEP7_objectS2_(ptr noundef %45, ptr noundef %46)
  store ptr %47, ptr %3, align 8
  store i32 1, ptr %9, align 4
  call void @llvm.lifetime.end.p0(i64 8, ptr %10) #22
  br label %48

48:                                               ; preds = %41, %38
  call void @llvm.lifetime.end.p0(i64 1, ptr %6) #22
  %49 = load ptr, ptr %3, align 8
  ret ptr %49
}