; Function Attrs: mustprogress uwtable
define hidden noundef ptr @_ZN8nanobind6detail24nb_bound_method_getattroEP7_objectS2_(ptr noundef %0, ptr noundef %1) local_unnamed_addr #0 {
  %3 = tail call ptr @PyUnicode_AsUTF8AndSize(ptr noundef %1, ptr noundef null)
  %.not = icmp eq ptr %3, null
  br i1 %.not, label %.critedge, label %4

4:                                                ; preds = %2
  %5 = tail call i32 @strcmp(ptr noundef nonnull dereferenceable(1) %3, ptr noundef nonnull dereferenceable(8) @.str.15) #28
  %6 = icmp eq i32 %5, 0
  br i1 %6, label %.critedge17, label %7

7:                                                ; preds = %4
  %8 = tail call i32 @strcmp(ptr noundef nonnull dereferenceable(1) %3, ptr noundef nonnull dereferenceable(11) @.str.12) #28
  %9 = icmp eq i32 %8, 0
  br i1 %9, label %.critedge17, label %.critedge

.critedge:                                        ; preds = %2, %7
  %10 = tail call ptr @PyObject_GenericGetAttr(ptr noundef %0, ptr noundef %1)
  %.not15 = icmp eq ptr %10, null
  br i1 %.not15, label %11, label %15

11:                                               ; preds = %.critedge
  tail call void @PyErr_Clear()
  br label %.critedge17

.critedge17:                                      ; preds = %4, %11, %7
  %12 = getelementptr inbounds nuw i8, ptr %0, i64 24
  %13 = load ptr, ptr %12, align 8
  %14 = tail call noundef ptr @_ZN8nanobind6detail16nb_func_getattroEP7_objectS2_(ptr noundef %13, ptr noundef %1)
  br label %15

15:                                               ; preds = %.critedge, %.critedge17
  %.1 = phi ptr [ %14, %.critedge17 ], [ %10, %.critedge ]
  ret ptr %.1
}